#include <math.h>
#include <stdio.h>
#include <stdlib.h>
#include <string.h>

int f(int a)
{
	if(a%7==0)
		return 0;
	else if(a>10 && a%10!=0 && (a%10)%7==0)
		return 0;
	else if(a>=70 && a<=79)
		return 0;
	else
		return 1;
}

int main()
{
	int n,i;
	long sum=0;
	scanf("%d",&n);
	for(i=1;i<=n;i++)
	{
		if(f(i))
			sum=sum+i*i;
	}
	printf("%d\n",sum);
	return 0;
}